target datalayout = "e-m:e-p270:32:32-p271:32:32-p272:64:64-i64:64-i128:128-f80:128-n8:16:32:64-S128"
target triple = "x86_64-pc-linux-gnu"

%struct.evp_pkey_ctx_st = type { i32, ptr, ptr, ptr, ptr, %union.anon, %struct.anon.4, ptr, ptr, ptr, i32, i32, ptr, ptr, ptr, ptr, ptr, i8, ptr }
%union.anon = type { %struct.anon.0 }
%struct.anon.0 = type { ptr, ptr }
%struct.anon.4 = type { ptr, ptr, i64, i8 }
%struct.CRYPTO_REF_COUNT = type { i32 }
%struct.anon = type { ptr }
%struct.evp_pkey_method_st = type { i32, i32, ptr, ptr, ptr, ptr, ptr, ptr, ptr, ptr, ptr, ptr, ptr, ptr, ptr, ptr, ptr, ptr, ptr, ptr, ptr, ptr, ptr, ptr, ptr, ptr, ptr, ptr, ptr, ptr, ptr, ptr, ptr }
%struct.evp_pkey_st = type { i32, i32, ptr, ptr, ptr, %union.legacy_pkey_st, %union.legacy_pkey_st, %struct.CRYPTO_REF_COUNT, ptr, ptr, i32, i8, %struct.crypto_ex_data_st, ptr, ptr, i64, ptr, i64, %struct.anon.5 }
%union.legacy_pkey_st = type { ptr }
%struct.crypto_ex_data_st = type { ptr, ptr }
%struct.anon.5 = type { i32, i32, i32 }

@.str = private unnamed_addr constant [33 x i8] c"../openssl/crypto/evp/pmeth_gn.c\00", align 1
@__func__.EVP_PKEY_generate = private unnamed_addr constant [18 x i8] c"EVP_PKEY_generate\00", align 1

; Function Attrs: nounwind uwtable
define i32 @EVP_PKEY_generate(ptr noundef %0, ptr noundef %1) #0 {
  %3 = alloca i32, align 4
  %4 = alloca ptr, align 8
  %5 = alloca ptr, align 8
  %6 = alloca i32, align 4
  %7 = alloca ptr, align 8
  %8 = alloca [2 x i32], align 4
  %9 = alloca i32, align 4
  %10 = alloca ptr, align 8
  %11 = alloca ptr, align 8
  store ptr %0, ptr %4, align 8, !tbaa !3
  store ptr %1, ptr %5, align 8, !tbaa !34
  call void @llvm.lifetime.start.p0(i64 4, ptr %6) #4
  store i32 0, ptr %6, align 4, !tbaa !8
  call void @llvm.lifetime.start.p0(i64 8, ptr %7) #4
  store ptr null, ptr %7, align 8, !tbaa !36
  call void @llvm.lifetime.start.p0(i64 8, ptr %8) #4
  %12 = load ptr, ptr %5, align 8, !tbaa !34
  %13 = icmp eq ptr %12, null
  br i1 %13, label %14, label %15

14:                                               ; preds = %2
  store i32 -1, ptr %3, align 4
  store i32 1, ptr %9, align 4
  br label %181

15:                                               ; preds = %2
  %16 = load ptr, ptr %4, align 8, !tbaa !3
  %17 = icmp eq ptr %16, null
  br i1 %17, label %18, label %19

18:                                               ; preds = %15
  br label %178

19:                                               ; preds = %15
  %20 = load ptr, ptr %4, align 8, !tbaa !3
  %21 = getelementptr inbounds nuw %struct.evp_pkey_ctx_st, ptr %20, i32 0, i32 0
  %22 = load i32, ptr %21, align 8, !tbaa !10
  %23 = and i32 %22, 6
  %24 = icmp eq i32 %23, 0
  br i1 %24, label %25, label %26

25:                                               ; preds = %19
  br label %179

26:                                               ; preds = %19
  %27 = load ptr, ptr %5, align 8, !tbaa !34
  %28 = load ptr, ptr %27, align 8, !tbaa !36
  %29 = icmp eq ptr %28, null
  br i1 %29, label %30, label %33

30:                                               ; preds = %26
  %31 = call ptr @EVP_PKEY_new()
  store ptr %31, ptr %7, align 8, !tbaa !36
  %32 = load ptr, ptr %5, align 8, !tbaa !34
  store ptr %31, ptr %32, align 8, !tbaa !36
  br label %33

33:                                               ; preds = %30, %26
  %34 = load ptr, ptr %5, align 8, !tbaa !34
  %35 = load ptr, ptr %34, align 8, !tbaa !36
  %36 = icmp eq ptr %35, null
  br i1 %36, label %37, label %38

37:                                               ; preds = %33
  call void @ERR_new()
  call void @ERR_set_debug(ptr noundef @.str, i32 noundef 148, ptr noundef @__func__.EVP_PKEY_generate)
  call void (i32, i32, ptr, ...) @ERR_set_error(i32 noundef 6, i32 noundef 524294, ptr noundef null)
  store i32 -1, ptr %3, align 4
  store i32 1, ptr %9, align 4
  br label %181

38:                                               ; preds = %33
  %39 = load ptr, ptr %4, align 8, !tbaa !3
  %40 = getelementptr inbounds nuw %struct.evp_pkey_ctx_st, ptr %39, i32 0, i32 5
  %41 = getelementptr inbounds nuw %struct.anon, ptr %40, i32 0, i32 0
  %42 = load ptr, ptr %41, align 8, !tbaa !27
  %43 = icmp eq ptr %42, null
  br i1 %43, label %44, label %45

44:                                               ; preds = %38
  br label %118

45:                                               ; preds = %38
  %46 = getelementptr inbounds [2 x i32], ptr %8, i64 0, i64 0
  %47 = load ptr, ptr %4, align 8, !tbaa !3
  %48 = getelementptr inbounds nuw %struct.evp_pkey_ctx_st, ptr %47, i32 0, i32 9
  store ptr %46, ptr %48, align 8, !tbaa !37
  %49 = load ptr, ptr %4, align 8, !tbaa !3
  %50 = getelementptr inbounds nuw %struct.evp_pkey_ctx_st, ptr %49, i32 0, i32 10
  store i32 2, ptr %50, align 8, !tbaa !38
  store i32 1, ptr %6, align 4, !tbaa !8
  %51 = load ptr, ptr %4, align 8, !tbaa !3
  %52 = getelementptr inbounds nuw %struct.evp_pkey_ctx_st, ptr %51, i32 0, i32 14
  %53 = load ptr, ptr %52, align 8, !tbaa !39
  %54 = icmp ne ptr %53, null
  br i1 %54, label %55, label %85

55:                                               ; preds = %45
  call void @llvm.lifetime.start.p0(i64 8, ptr %10) #4
  %56 = load ptr, ptr %4, align 8, !tbaa !3
  %57 = getelementptr inbounds nuw %struct.evp_pkey_ctx_st, ptr %56, i32 0, i32 4
  %58 = load ptr, ptr %57, align 8, !tbaa !22
  store ptr %58, ptr %10, align 8, !tbaa !40
  call void @llvm.lifetime.start.p0(i64 8, ptr %11) #4
  %59 = load ptr, ptr %4, align 8, !tbaa !3
  %60 = getelementptr inbounds nuw %struct.evp_pkey_ctx_st, ptr %59, i32 0, i32 14
  %61 = load ptr, ptr %60, align 8, !tbaa !39
  %62 = load ptr, ptr %4, align 8, !tbaa !3
  %63 = getelementptr inbounds nuw %struct.evp_pkey_ctx_st, ptr %62, i32 0, i32 1
  %64 = load ptr, ptr %63, align 8, !tbaa !41
  %65 = load ptr, ptr %4, align 8, !tbaa !3
  %66 = getelementptr inbounds nuw %struct.evp_pkey_ctx_st, ptr %65, i32 0, i32 2
  %67 = load ptr, ptr %66, align 8, !tbaa !42
  %68 = call ptr @evp_pkey_export_to_provider(ptr noundef %61, ptr noundef %64, ptr noundef %10, ptr noundef %67)
  store ptr %68, ptr %11, align 8, !tbaa !43
  %69 = load ptr, ptr %10, align 8, !tbaa !40
  %70 = icmp eq ptr %69, null
  br i1 %70, label %71, label %72

71:                                               ; preds = %55
  store i32 2, ptr %9, align 4
  br label %82

72:                                               ; preds = %55
  %73 = load ptr, ptr %4, align 8, !tbaa !3
  %74 = getelementptr inbounds nuw %struct.evp_pkey_ctx_st, ptr %73, i32 0, i32 4
  %75 = load ptr, ptr %74, align 8, !tbaa !22
  %76 = load ptr, ptr %4, align 8, !tbaa !3
  %77 = getelementptr inbounds nuw %struct.evp_pkey_ctx_st, ptr %76, i32 0, i32 5
  %78 = getelementptr inbounds nuw %struct.anon, ptr %77, i32 0, i32 0
  %79 = load ptr, ptr %78, align 8, !tbaa !27
  %80 = load ptr, ptr %11, align 8, !tbaa !43
  %81 = call i32 @evp_keymgmt_gen_set_template(ptr noundef %75, ptr noundef %79, ptr noundef %80)
  store i32 %81, ptr %6, align 4, !tbaa !8
  store i32 0, ptr %9, align 4
  br label %82

82:                                               ; preds = %71, %72
  call void @llvm.lifetime.end.p0(i64 8, ptr %11) #4
  call void @llvm.lifetime.end.p0(i64 8, ptr %10) #4
  %83 = load i32, ptr %9, align 4
  switch i32 %83, label %181 [
    i32 0, label %84
    i32 2, label %178
  ]

84:                                               ; preds = %82
  br label %85

85:                                               ; preds = %84, %45
  %86 = load i32, ptr %6, align 4, !tbaa !8
  %87 = icmp ne i32 %86, 0
  br i1 %87, label %88, label %101

88:                                               ; preds = %85
  %89 = load ptr, ptr %5, align 8, !tbaa !34
  %90 = load ptr, ptr %89, align 8, !tbaa !36
  %91 = load ptr, ptr %4, align 8, !tbaa !3
  %92 = getelementptr inbounds nuw %struct.evp_pkey_ctx_st, ptr %91, i32 0, i32 4
  %93 = load ptr, ptr %92, align 8, !tbaa !22
  %94 = load ptr, ptr %4, align 8, !tbaa !3
  %95 = getelementptr inbounds nuw %struct.evp_pkey_ctx_st, ptr %94, i32 0, i32 5
  %96 = getelementptr inbounds nuw %struct.anon, ptr %95, i32 0, i32 0
  %97 = load ptr, ptr %96, align 8, !tbaa !27
  %98 = load ptr, ptr %4, align 8, !tbaa !3
  %99 = call ptr @evp_keymgmt_util_gen(ptr noundef %90, ptr noundef %93, ptr noundef %97, ptr noundef @ossl_callback_to_pkey_gencb, ptr noundef %98)
  %100 = icmp ne ptr %99, null
  br label %101

101:                                              ; preds = %88, %85
  %102 = phi i1 [ false, %85 ], [ %100, %88 ]
  %103 = zext i1 %102 to i32
  store i32 %103, ptr %6, align 4, !tbaa !8
  %104 = load ptr, ptr %4, align 8, !tbaa !3
  %105 = getelementptr inbounds nuw %struct.evp_pkey_ctx_st, ptr %104, i32 0, i32 9
  store ptr null, ptr %105, align 8, !tbaa !37
  %106 = load i32, ptr %6, align 4, !tbaa !8
  %107 = icmp ne i32 %106, 0
  br i1 %107, label %108, label %111

108:                                              ; preds = %101
  %109 = load ptr, ptr %5, align 8, !tbaa !34
  %110 = load ptr, ptr %109, align 8, !tbaa !36
  call void @evp_pkey_free_legacy(ptr noundef %110)
  br label %111

111:                                              ; preds = %108, %101
  %112 = load ptr, ptr %4, align 8, !tbaa !3
  %113 = getelementptr inbounds nuw %struct.evp_pkey_ctx_st, ptr %112, i32 0, i32 11
  %114 = load i32, ptr %113, align 4, !tbaa !44
  %115 = load ptr, ptr %5, align 8, !tbaa !34
  %116 = load ptr, ptr %115, align 8, !tbaa !36
  %117 = getelementptr inbounds nuw %struct.evp_pkey_st, ptr %116, i32 0, i32 0
  store i32 %114, ptr %117, align 8, !tbaa !45
  br label %166

118:                                              ; preds = %44
  %119 = load ptr, ptr %4, align 8, !tbaa !3
  %120 = getelementptr inbounds nuw %struct.evp_pkey_ctx_st, ptr %119, i32 0, i32 14
  %121 = load ptr, ptr %120, align 8, !tbaa !39
  %122 = icmp ne ptr %121, null
  br i1 %122, label %123, label %140

123:                                              ; preds = %118
  %124 = load ptr, ptr %4, align 8, !tbaa !3
  %125 = getelementptr inbounds nuw %struct.evp_pkey_ctx_st, ptr %124, i32 0, i32 14
  %126 = load ptr, ptr %125, align 8, !tbaa !39
  %127 = getelementptr inbounds nuw %struct.evp_pkey_st, ptr %126, i32 0, i32 13
  %128 = load ptr, ptr %127, align 8, !tbaa !53
  %129 = icmp ne ptr %128, null
  %130 = xor i1 %129, true
  %131 = zext i1 %130 to i32
  %132 = icmp ne i32 %131, 0
  %133 = xor i1 %132, true
  %134 = xor i1 %133, true
  %135 = zext i1 %134 to i32
  %136 = sext i32 %135 to i64
  %137 = call i64 @llvm.expect.i64(i64 %136, i64 1)
  %138 = icmp ne i64 %137, 0
  br i1 %138, label %140, label %139

139:                                              ; preds = %123
  br label %180

140:                                              ; preds = %123, %118
  %141 = load ptr, ptr %4, align 8, !tbaa !3
  %142 = getelementptr inbounds nuw %struct.evp_pkey_ctx_st, ptr %141, i32 0, i32 0
  %143 = load i32, ptr %142, align 8, !tbaa !10
  switch i32 %143, label %164 [
    i32 2, label %144
    i32 4, label %154
  ]

144:                                              ; preds = %140
  %145 = load ptr, ptr %4, align 8, !tbaa !3
  %146 = getelementptr inbounds nuw %struct.evp_pkey_ctx_st, ptr %145, i32 0, i32 12
  %147 = load ptr, ptr %146, align 8, !tbaa !28
  %148 = getelementptr inbounds nuw %struct.evp_pkey_method_st, ptr %147, i32 0, i32 6
  %149 = load ptr, ptr %148, align 8, !tbaa !29
  %150 = load ptr, ptr %4, align 8, !tbaa !3
  %151 = load ptr, ptr %5, align 8, !tbaa !34
  %152 = load ptr, ptr %151, align 8, !tbaa !36
  %153 = call i32 %149(ptr noundef %150, ptr noundef %152)
  store i32 %153, ptr %6, align 4, !tbaa !8
  br label %165

154:                                              ; preds = %140
  %155 = load ptr, ptr %4, align 8, !tbaa !3
  %156 = getelementptr inbounds nuw %struct.evp_pkey_ctx_st, ptr %155, i32 0, i32 12
  %157 = load ptr, ptr %156, align 8, !tbaa !28
  %158 = getelementptr inbounds nuw %struct.evp_pkey_method_st, ptr %157, i32 0, i32 8
  %159 = load ptr, ptr %158, align 8, !tbaa !31
  %160 = load ptr, ptr %4, align 8, !tbaa !3
  %161 = load ptr, ptr %5, align 8, !tbaa !34
  %162 = load ptr, ptr %161, align 8, !tbaa !36
  %163 = call i32 %159(ptr noundef %160, ptr noundef %162)
  store i32 %163, ptr %6, align 4, !tbaa !8
  br label %165

164:                                              ; preds = %140
  br label %178

165:                                              ; preds = %154, %144
  br label %166

166:                                              ; preds = %180, %179, %178, %165, %111
  %167 = load i32, ptr %6, align 4, !tbaa !8
  %168 = icmp sle i32 %167, 0
  br i1 %168, label %169, label %176

169:                                              ; preds = %166
  %170 = load ptr, ptr %7, align 8, !tbaa !36
  %171 = icmp ne ptr %170, null
  br i1 %171, label %172, label %174

172:                                              ; preds = %169
  %173 = load ptr, ptr %5, align 8, !tbaa !34
  store ptr null, ptr %173, align 8, !tbaa !36
  br label %174

174:                                              ; preds = %172, %169
  %175 = load ptr, ptr %7, align 8, !tbaa !36
  call void @EVP_PKEY_free(ptr noundef %175)
  br label %176

176:                                              ; preds = %174, %166
  %177 = load i32, ptr %6, align 4, !tbaa !8
  store i32 %177, ptr %3, align 4
  store i32 1, ptr %9, align 4
  br label %181

178:                                              ; preds = %82, %164, %18
  call void @ERR_new()
  call void @ERR_set_debug(ptr noundef @.str, i32 noundef 244, ptr noundef @__func__.EVP_PKEY_generate)
  call void (i32, i32, ptr, ...) @ERR_set_error(i32 noundef 6, i32 noundef 150, ptr noundef null)
  store i32 -2, ptr %6, align 4, !tbaa !8
  br label %166

179:                                              ; preds = %25
  call void @ERR_new()
  call void @ERR_set_debug(ptr noundef @.str, i32 noundef 248, ptr noundef @__func__.EVP_PKEY_generate)
  call void (i32, i32, ptr, ...) @ERR_set_error(i32 noundef 6, i32 noundef 151, ptr noundef null)
  store i32 -1, ptr %6, align 4, !tbaa !8
  br label %166

180:                                              ; preds = %139
  call void @ERR_new()
  call void @ERR_set_debug(ptr noundef @.str, i32 noundef 253, ptr noundef @__func__.EVP_PKEY_generate)
  call void (i32, i32, ptr, ...) @ERR_set_error(i32 noundef 6, i32 noundef 204, ptr noundef null)
  store i32 -1, ptr %6, align 4, !tbaa !8
  br label %166

181:                                              ; preds = %176, %82, %37, %14
  call void @llvm.lifetime.end.p0(i64 8, ptr %8) #4
  call void @llvm.lifetime.end.p0(i64 8, ptr %7) #4
  call void @llvm.lifetime.end.p0(i64 4, ptr %6) #4
  %182 = load i32, ptr %3, align 4
  ret i32 %182
}