; Function Attrs: nounwind uwtable
define i32 @EVP_PKEY_generate(ptr noundef %0, ptr noundef captures(address_is_null) %1) local_unnamed_addr #0 {
  %3 = alloca [2 x i32], align 4
  %4 = alloca ptr, align 8
  call void @llvm.lifetime.start.p0(i64 8, ptr nonnull %3) #6
  %5 = icmp eq ptr %1, null
  br i1 %5, label %81, label %6

6:                                                ; preds = %2
  %7 = icmp eq ptr %0, null
  br i1 %7, label %79, label %8

8:                                                ; preds = %6
  %9 = load i32, ptr %0, align 8, !tbaa !3
  %10 = and i32 %9, 6
  %11 = icmp eq i32 %10, 0
  br i1 %11, label %.thread65.thread, label %12

12:                                               ; preds = %8
  %13 = load ptr, ptr %1, align 8, !tbaa !31
  %14 = icmp eq ptr %13, null
  br i1 %14, label %15, label %.thread

15:                                               ; preds = %12
  %16 = tail call ptr @EVP_PKEY_new() #6
  store ptr %16, ptr %1, align 8, !tbaa !31
  %17 = icmp eq ptr %16, null
  br i1 %17, label %18, label %.thread

18:                                               ; preds = %15
  tail call void @ERR_new() #6
  tail call void @ERR_set_debug(ptr noundef nonnull @.str, i32 noundef 148, ptr noundef nonnull @__func__.EVP_PKEY_generate) #6
  tail call void (i32, i32, ptr, ...) @ERR_set_error(i32 noundef 6, i32 noundef 524294, ptr noundef null) #6
  br label %81

.thread:                                          ; preds = %12, %15
  %.156 = phi ptr [ %16, %15 ], [ null, %12 ]
  %19 = phi ptr [ %16, %15 ], [ %13, %12 ]
  %20 = getelementptr inbounds nuw i8, ptr %0, i64 40
  %21 = load ptr, ptr %20, align 8, !tbaa !24
  %22 = icmp eq ptr %21, null
  br i1 %22, label %55, label %23

23:                                               ; preds = %.thread
  %24 = getelementptr inbounds nuw i8, ptr %0, i64 104
  store ptr %3, ptr %24, align 8, !tbaa !32
  %25 = getelementptr inbounds nuw i8, ptr %0, i64 112
  store i32 2, ptr %25, align 8, !tbaa !33
  %26 = getelementptr inbounds nuw i8, ptr %0, i64 136
  %27 = load ptr, ptr %26, align 8, !tbaa !34
  %.not = icmp eq ptr %27, null
  br i1 %.not, label %.thread61, label %28

28:                                               ; preds = %23
  call void @llvm.lifetime.start.p0(i64 8, ptr nonnull %4) #6
  %29 = getelementptr inbounds nuw i8, ptr %0, i64 32
  %30 = load ptr, ptr %29, align 8, !tbaa !19
  store ptr %30, ptr %4, align 8, !tbaa !35
  %31 = getelementptr inbounds nuw i8, ptr %0, i64 8
  %32 = load ptr, ptr %31, align 8, !tbaa !36
  %33 = getelementptr inbounds nuw i8, ptr %0, i64 16
  %34 = load ptr, ptr %33, align 8, !tbaa !37
  %35 = call ptr @evp_pkey_export_to_provider(ptr noundef nonnull %27, ptr noundef %32, ptr noundef nonnull %4, ptr noundef %34) #6
  %36 = load ptr, ptr %4, align 8, !tbaa !35
  %37 = icmp eq ptr %36, null
  br i1 %37, label %38, label %39

38:                                               ; preds = %28
  call void @llvm.lifetime.end.p0(i64 8, ptr nonnull %4) #6
  br label %79

39:                                               ; preds = %28
  %40 = load ptr, ptr %29, align 8, !tbaa !19
  %41 = load ptr, ptr %20, align 8, !tbaa !24
  %42 = call i32 @evp_keymgmt_gen_set_template(ptr noundef %40, ptr noundef %41, ptr noundef %35) #6
  call void @llvm.lifetime.end.p0(i64 8, ptr nonnull %4) #6
  %.not50 = icmp eq i32 %42, 0
  br i1 %.not50, label %.thread64, label %..thread61_crit_edge

..thread61_crit_edge:                             ; preds = %39
  %.pre = load ptr, ptr %1, align 8, !tbaa !31
  %.pre76 = load ptr, ptr %20, align 8, !tbaa !24
  br label %.thread61

.thread64:                                        ; preds = %39
  store ptr null, ptr %24, align 8, !tbaa !32
  br label %50

.thread61:                                        ; preds = %..thread61_crit_edge, %23
  %43 = phi ptr [ %.pre76, %..thread61_crit_edge ], [ %21, %23 ]
  %44 = phi ptr [ %.pre, %..thread61_crit_edge ], [ %19, %23 ]
  %45 = getelementptr inbounds nuw i8, ptr %0, i64 32
  %46 = load ptr, ptr %45, align 8, !tbaa !19
  %47 = call ptr @evp_keymgmt_util_gen(ptr noundef %44, ptr noundef %46, ptr noundef %43, ptr noundef nonnull @ossl_callback_to_pkey_gencb, ptr noundef nonnull %0) #6
  %.not75 = icmp eq ptr %47, null
  store ptr null, ptr %24, align 8, !tbaa !32
  br i1 %.not75, label %50, label %48

48:                                               ; preds = %.thread61
  %49 = load ptr, ptr %1, align 8, !tbaa !31
  call void @evp_pkey_free_legacy(ptr noundef %49) #6
  br label %50

50:                                               ; preds = %.thread64, %48, %.thread61
  %51 = phi i32 [ 0, %.thread64 ], [ 1, %48 ], [ 0, %.thread61 ]
  %52 = getelementptr inbounds nuw i8, ptr %0, i64 116
  %53 = load i32, ptr %52, align 4, !tbaa !38
  %54 = load ptr, ptr %1, align 8, !tbaa !31
  store i32 %53, ptr %54, align 8, !tbaa !39
  br label %75

55:                                               ; preds = %.thread
  %56 = getelementptr inbounds nuw i8, ptr %0, i64 136
  %57 = load ptr, ptr %56, align 8, !tbaa !34
  %.not51 = icmp eq ptr %57, null
  br i1 %.not51, label %61, label %58

58:                                               ; preds = %55
  %59 = getelementptr inbounds nuw i8, ptr %57, i64 96
  %60 = load ptr, ptr %59, align 8, !tbaa !47
  %.not52 = icmp eq ptr %60, null
  br i1 %.not52, label %61, label %80, !prof !48

61:                                               ; preds = %58, %55
  %62 = load i32, ptr %0, align 8, !tbaa !3
  switch i32 %62, label %79 [
    i32 2, label %63
    i32 4, label %69
  ]

63:                                               ; preds = %61
  %64 = getelementptr inbounds nuw i8, ptr %0, i64 120
  %65 = load ptr, ptr %64, align 8, !tbaa !25
  %66 = getelementptr inbounds nuw i8, ptr %65, i64 40
  %67 = load ptr, ptr %66, align 8, !tbaa !26
  %68 = tail call i32 %67(ptr noundef nonnull %0, ptr noundef nonnull %19) #6
  br label %75

69:                                               ; preds = %61
  %70 = getelementptr inbounds nuw i8, ptr %0, i64 120
  %71 = load ptr, ptr %70, align 8, !tbaa !25
  %72 = getelementptr inbounds nuw i8, ptr %71, i64 56
  %73 = load ptr, ptr %72, align 8, !tbaa !28
  %74 = tail call i32 %73(ptr noundef nonnull %0, ptr noundef nonnull %19) #6
  br label %75

75:                                               ; preds = %63, %69, %50
  %.246 = phi i32 [ %74, %69 ], [ %68, %63 ], [ %51, %50 ]
  %76 = icmp slt i32 %.246, 1
  br i1 %76, label %.thread65, label %81

.thread65:                                        ; preds = %80, %79, %75
  %.269 = phi ptr [ %.156, %75 ], [ %.156, %80 ], [ %.043, %79 ]
  %.24668 = phi i32 [ %.246, %75 ], [ -1, %80 ], [ -2, %79 ]
  %.not53 = icmp eq ptr %.269, null
  br i1 %.not53, label %78, label %77

77:                                               ; preds = %.thread65
  store ptr null, ptr %1, align 8, !tbaa !31
  br label %78

78:                                               ; preds = %.thread65.thread, %77, %.thread65
  %.2466874 = phi i32 [ -1, %.thread65.thread ], [ %.24668, %77 ], [ %.24668, %.thread65 ]
  %.26973 = phi ptr [ null, %.thread65.thread ], [ %.269, %77 ], [ null, %.thread65 ]
  call void @EVP_PKEY_free(ptr noundef %.26973) #6
  br label %81

79:                                               ; preds = %38, %61, %6
  %.043 = phi ptr [ null, %6 ], [ %.156, %61 ], [ %.156, %38 ]
  call void @ERR_new() #6
  call void @ERR_set_debug(ptr noundef nonnull @.str, i32 noundef 244, ptr noundef nonnull @__func__.EVP_PKEY_generate) #6
  call void (i32, i32, ptr, ...) @ERR_set_error(i32 noundef 6, i32 noundef 150, ptr noundef null) #6
  br label %.thread65

.thread65.thread:                                 ; preds = %8
  tail call void @ERR_new() #6
  tail call void @ERR_set_debug(ptr noundef nonnull @.str, i32 noundef 248, ptr noundef nonnull @__func__.EVP_PKEY_generate) #6
  tail call void (i32, i32, ptr, ...) @ERR_set_error(i32 noundef 6, i32 noundef 151, ptr noundef null) #6
  br label %78

80:                                               ; preds = %58
  tail call void @ERR_new() #6
  tail call void @ERR_set_debug(ptr noundef nonnull @.str, i32 noundef 253, ptr noundef nonnull @__func__.EVP_PKEY_generate) #6
  tail call void (i32, i32, ptr, ...) @ERR_set_error(i32 noundef 6, i32 noundef 204, ptr noundef null) #6
  br label %.thread65

81:                                               ; preds = %75, %78, %2, %18
  %.0 = phi i32 [ -1, %18 ], [ -1, %2 ], [ %.2466874, %78 ], [ %.246, %75 ]
  call void @llvm.lifetime.end.p0(i64 8, ptr nonnull %3) #6
  ret i32 %.0
}